; Function Attrs: mustprogress norecurse nounwind uwtable
define internal fastcc noundef float @_ZL15get_node_attr_fRKN4onnx9NodeProtoEPKcf(ptr noundef nonnull readonly align 8 captures(none) dereferenceable(128) %0, ptr noundef %1, float noundef %2) unnamed_addr #9 personality ptr @__gxx_personality_v0 {
  %4 = getelementptr inbounds nuw i8, ptr %0, i64 80
  %5 = load i32, ptr %4, align 8, !tbaa !59
  %.not15 = icmp sgt i32 %5, 0
  br i1 %.not15, label %.lr.ph, label %.loopexit

.lr.ph:                                           ; preds = %3
  %6 = getelementptr inbounds nuw i8, ptr %0, i64 88
  br label %10

7:                                                ; preds = %10
  %indvars.iv.next = add nuw nsw i64 %indvars.iv, 1
  %8 = load i32, ptr %4, align 8, !tbaa !59
  %9 = sext i32 %8 to i64
  %.not = icmp slt i64 %indvars.iv.next, %9
  br i1 %.not, label %10, label %.loopexit, !llvm.loop !163

10:                                               ; preds = %.lr.ph, %7
  %indvars.iv = phi i64 [ 0, %.lr.ph ], [ %indvars.iv.next, %7 ]
  %11 = load ptr, ptr %6, align 8, !tbaa !69
  %12 = getelementptr inbounds nuw i8, ptr %11, i64 8
  %13 = getelementptr inbounds nuw [1 x ptr], ptr %12, i64 0, i64 %indvars.iv
  %14 = load ptr, ptr %13, align 8, !tbaa !70
  %15 = getelementptr inbounds nuw i8, ptr %14, i64 128
  %16 = load ptr, ptr %15, align 8, !tbaa !71
  %17 = tail call noundef i32 @_ZNKSt7__cxx1112basic_stringIcSt11char_traitsIcESaIcEE7compareEPKc(ptr noundef nonnull align 8 dereferenceable(32) %16, ptr noundef %1) #31
  %18 = icmp eq i32 %17, 0
  br i1 %18, label %.thread, label %7

.thread:                                          ; preds = %10
  %19 = getelementptr inbounds nuw i8, ptr %14, i64 184
  %20 = load float, ptr %19, align 8, !tbaa !160
  br label %.loopexit

.loopexit:                                        ; preds = %7, %3, %.thread
  %.3 = phi float [ %20, %.thread ], [ %2, %3 ], [ %2, %7 ]
  ret float %.3
}